; Function Attrs: nounwind uwtable
define void @Ptngc_comp_conv_to_mtf_partial3(ptr noundef readonly captures(none) %0, i32 noundef %1, ptr noundef writeonly captures(none) %2) local_unnamed_addr #0 {
  %4 = alloca [256 x i32], align 16
  %5 = alloca [256 x i32], align 16
  %6 = sext i32 %1 to i64
  %7 = tail call ptr @Ptngc_warnmalloc_x(i64 noundef %6, ptr noundef nonnull @.str, i32 noundef 102) #5
  %8 = getelementptr inbounds nuw i8, ptr %4, i64 1020
  %9 = icmp sgt i32 %1, 0
  %wide.trip.count.i = zext i32 %1 to i64
  br i1 %9, label %.preheader.us.us, label %.preheader

.preheader.us.us:                                 ; preds = %3, %comp_conv_to_mtf_byte.exit.loopexit.us.us
  %indvars.iv43 = phi i64 [ %indvars.iv.next44, %comp_conv_to_mtf_byte.exit.loopexit.us.us ], [ 0, %3 ]
  %indvars.iv43.tr = trunc i64 %indvars.iv43 to i32
  %10 = shl i32 %indvars.iv43.tr, 3
  br label %38

11:                                               ; preds = %11, %._crit_edge.us.us
  %indvars.iv.i.us.us = phi i64 [ 0, %._crit_edge.us.us ], [ %indvars.iv.next.i.us.us, %11 ]
  %12 = getelementptr inbounds nuw [256 x i32], ptr %5, i64 0, i64 %indvars.iv.i.us.us
  %13 = trunc nuw nsw i64 %indvars.iv.i.us.us to i32
  store i32 %13, ptr %12, align 4, !tbaa !3
  %indvars.iv.next.i.us.us = add nuw nsw i64 %indvars.iv.i.us.us, 1
  %exitcond.not.i.us.us = icmp eq i64 %indvars.iv.next.i.us.us, 256
  br i1 %exitcond.not.i.us.us, label %.preheader.i.us.us, label %11, !llvm.loop !7

.preheader.i.us.us:                               ; preds = %11, %.preheader.i.us.us
  %indvars.iv50.i.us.us = phi i64 [ %indvars.iv.next51.i.us.us, %.preheader.i.us.us ], [ 0, %11 ]
  %indvars.iv.next51.i.us.us = add nuw nsw i64 %indvars.iv50.i.us.us, 1
  %14 = getelementptr inbounds nuw [256 x i32], ptr %4, i64 0, i64 %indvars.iv50.i.us.us
  %15 = trunc nuw nsw i64 %indvars.iv.next51.i.us.us to i32
  store i32 %15, ptr %14, align 4, !tbaa !3
  %exitcond53.not.i.us.us = icmp eq i64 %indvars.iv.next51.i.us.us, 255
  br i1 %exitcond53.not.i.us.us, label %.lr.ph44.preheader.i.us.us, label %.preheader.i.us.us, !llvm.loop !9

.lr.ph44.preheader.i.us.us:                       ; preds = %.preheader.i.us.us
  %16 = getelementptr inbounds nuw i8, ptr %2, i64 %44
  store i32 -1, ptr %8, align 4, !tbaa !3
  br label %.lr.ph44.i.us.us

.lr.ph44.i.us.us:                                 ; preds = %37, %.lr.ph44.preheader.i.us.us
  %indvars.iv54.i.us.us = phi i64 [ 0, %.lr.ph44.preheader.i.us.us ], [ %indvars.iv.next55.i.us.us, %37 ]
  %.03041.i.us.us = phi i32 [ 0, %.lr.ph44.preheader.i.us.us ], [ %.131.i.us.us, %37 ]
  %17 = getelementptr inbounds nuw i8, ptr %7, i64 %indvars.iv54.i.us.us
  %18 = load i8, ptr %17, align 1, !tbaa !10
  %19 = zext i8 %18 to i32
  %20 = sext i32 %.03041.i.us.us to i64
  %21 = getelementptr inbounds [256 x i32], ptr %5, i64 0, i64 %20
  %22 = load i32, ptr %21, align 4, !tbaa !3
  %.not35.i.us.us = icmp eq i32 %22, %19
  br i1 %.not35.i.us.us, label %._crit_edge.thread.i.us.us, label %.lr.ph.i.us.us

.lr.ph.i.us.us:                                   ; preds = %.lr.ph44.i.us.us, %.lr.ph.i.us.us
  %23 = phi i64 [ %27, %.lr.ph.i.us.us ], [ %20, %.lr.ph44.i.us.us ]
  %.037.i.us.us = phi i8 [ %26, %.lr.ph.i.us.us ], [ 0, %.lr.ph44.i.us.us ]
  %.02836.i.us.us = phi i32 [ %25, %.lr.ph.i.us.us ], [ %.03041.i.us.us, %.lr.ph44.i.us.us ]
  %24 = getelementptr inbounds [256 x i32], ptr %4, i64 0, i64 %23
  %25 = load i32, ptr %24, align 4, !tbaa !3
  %26 = add i8 %.037.i.us.us, 1
  %27 = sext i32 %25 to i64
  %28 = getelementptr inbounds [256 x i32], ptr %5, i64 0, i64 %27
  %29 = load i32, ptr %28, align 4, !tbaa !3
  %.not.i.us.us = icmp eq i32 %29, %19
  br i1 %.not.i.us.us, label %._crit_edge.i.us.us, label %.lr.ph.i.us.us, !llvm.loop !11

._crit_edge.i.us.us:                              ; preds = %.lr.ph.i.us.us
  %30 = getelementptr inbounds nuw i8, ptr %16, i64 %indvars.iv54.i.us.us
  store i8 %26, ptr %30, align 1, !tbaa !10
  %.not32.i.us.us = icmp eq i32 %.02836.i.us.us, -1
  br i1 %.not32.i.us.us, label %37, label %31

31:                                               ; preds = %._crit_edge.i.us.us
  %32 = getelementptr inbounds [256 x i32], ptr %4, i64 0, i64 %27
  %33 = load i32, ptr %32, align 4, !tbaa !3
  %34 = sext i32 %.02836.i.us.us to i64
  %35 = getelementptr inbounds [256 x i32], ptr %4, i64 0, i64 %34
  store i32 %33, ptr %35, align 4, !tbaa !3
  store i32 %.03041.i.us.us, ptr %32, align 4, !tbaa !3
  br label %37

._crit_edge.thread.i.us.us:                       ; preds = %.lr.ph44.i.us.us
  %36 = getelementptr inbounds nuw i8, ptr %16, i64 %indvars.iv54.i.us.us
  store i8 0, ptr %36, align 1, !tbaa !10
  br label %37

37:                                               ; preds = %._crit_edge.thread.i.us.us, %31, %._crit_edge.i.us.us
  %.131.i.us.us = phi i32 [ %25, %31 ], [ %.03041.i.us.us, %._crit_edge.i.us.us ], [ %.03041.i.us.us, %._crit_edge.thread.i.us.us ]
  %indvars.iv.next55.i.us.us = add nuw nsw i64 %indvars.iv54.i.us.us, 1
  %exitcond57.not.i.us.us = icmp eq i64 %indvars.iv.next55.i.us.us, %wide.trip.count.i
  br i1 %exitcond57.not.i.us.us, label %comp_conv_to_mtf_byte.exit.loopexit.us.us, label %.lr.ph44.i.us.us, !llvm.loop !12

38:                                               ; preds = %.preheader.us.us, %38
  %indvars.iv = phi i64 [ 0, %.preheader.us.us ], [ %indvars.iv.next, %38 ]
  %39 = getelementptr inbounds nuw i32, ptr %0, i64 %indvars.iv
  %40 = load i32, ptr %39, align 4, !tbaa !3
  %41 = lshr i32 %40, %10
  %42 = trunc i32 %41 to i8
  %43 = getelementptr inbounds nuw i8, ptr %7, i64 %indvars.iv
  store i8 %42, ptr %43, align 1, !tbaa !10
  %indvars.iv.next = add nuw nsw i64 %indvars.iv, 1
  %exitcond42.not = icmp eq i64 %indvars.iv.next, %wide.trip.count.i
  br i1 %exitcond42.not, label %._crit_edge.us.us, label %38, !llvm.loop !16

comp_conv_to_mtf_byte.exit.loopexit.us.us:        ; preds = %37
  call void @llvm.lifetime.end.p0(i64 1024, ptr nonnull %5) #5
  call void @llvm.lifetime.end.p0(i64 1024, ptr nonnull %4) #5
  %indvars.iv.next44 = add nuw nsw i64 %indvars.iv43, 1
  %exitcond46.not = icmp eq i64 %indvars.iv.next44, 3
  br i1 %exitcond46.not, label %.split23.us, label %.preheader.us.us, !llvm.loop !17

._crit_edge.us.us:                                ; preds = %38
  %44 = mul nuw nsw i64 %indvars.iv43, %wide.trip.count.i
  call void @llvm.lifetime.start.p0(i64 1024, ptr nonnull %4) #5
  call void @llvm.lifetime.start.p0(i64 1024, ptr nonnull %5) #5
  br label %11

.preheader:                                       ; preds = %3, %comp_conv_to_mtf_byte.exit
  %.021 = phi i32 [ %50, %comp_conv_to_mtf_byte.exit ], [ 0, %3 ]
  call void @llvm.lifetime.start.p0(i64 1024, ptr nonnull %4) #5
  call void @llvm.lifetime.start.p0(i64 1024, ptr nonnull %5) #5
  br label %45

45:                                               ; preds = %45, %.preheader
  %indvars.iv.i = phi i64 [ 0, %.preheader ], [ %indvars.iv.next.i, %45 ]
  %46 = getelementptr inbounds nuw [256 x i32], ptr %5, i64 0, i64 %indvars.iv.i
  %47 = trunc nuw nsw i64 %indvars.iv.i to i32
  store i32 %47, ptr %46, align 4, !tbaa !3
  %indvars.iv.next.i = add nuw nsw i64 %indvars.iv.i, 1
  %exitcond.not.i = icmp eq i64 %indvars.iv.next.i, 256
  br i1 %exitcond.not.i, label %.preheader.i, label %45, !llvm.loop !7

.preheader.i:                                     ; preds = %45, %.preheader.i
  %indvars.iv50.i = phi i64 [ %indvars.iv.next51.i, %.preheader.i ], [ 0, %45 ]
  %indvars.iv.next51.i = add nuw nsw i64 %indvars.iv50.i, 1
  %48 = getelementptr inbounds nuw [256 x i32], ptr %4, i64 0, i64 %indvars.iv50.i
  %49 = trunc nuw nsw i64 %indvars.iv.next51.i to i32
  store i32 %49, ptr %48, align 4, !tbaa !3
  %exitcond53.not.i = icmp eq i64 %indvars.iv.next51.i, 255
  br i1 %exitcond53.not.i, label %comp_conv_to_mtf_byte.exit, label %.preheader.i, !llvm.loop !9

comp_conv_to_mtf_byte.exit:                       ; preds = %.preheader.i
  call void @llvm.lifetime.end.p0(i64 1024, ptr nonnull %5) #5
  call void @llvm.lifetime.end.p0(i64 1024, ptr nonnull %4) #5
  %50 = add nuw nsw i32 %.021, 1
  %exitcond.not = icmp eq i32 %50, 3
  br i1 %exitcond.not, label %.split23.us, label %.preheader, !llvm.loop !17

.split23.us:                                      ; preds = %comp_conv_to_mtf_byte.exit, %comp_conv_to_mtf_byte.exit.loopexit.us.us
  tail call void @free(ptr noundef %7) #5
  ret void
}